target datalayout = "e-m:e-p270:32:32-p271:32:32-p272:64:64-i64:64-i128:128-f80:128-n8:16:32:64-S128"
target triple = "x86_64-pc-linux-gnu"

%struct.ADPCMChannelStatus = type { i32, i16, i32, i32, i32, i32, i32, i32, i32 }

@ff_adpcm_step_table = external constant [89 x i16], align 16
@ff_adpcm_yamaha_difflookup = external constant [0 x i8], align 1
@ff_adpcm_index_table = external constant [16 x i8], align 16

; Function Attrs: alwaysinline nounwind willreturn memory(none) uwtable
define internal i32 @av_clip_c(i32 noundef %0, i32 noundef %1, i32 noundef %2) #7 {
  %4 = alloca i32, align 4
  %5 = alloca i32, align 4
  %6 = alloca i32, align 4
  %7 = alloca i32, align 4
  store i32 %0, ptr %5, align 4, !tbaa !32
  store i32 %1, ptr %6, align 4, !tbaa !32
  store i32 %2, ptr %7, align 4, !tbaa !32
  %8 = load i32, ptr %5, align 4, !tbaa !32
  %9 = load i32, ptr %6, align 4, !tbaa !32
  %10 = icmp slt i32 %8, %9
  br i1 %10, label %11, label %13

11:                                               ; preds = %3
  %12 = load i32, ptr %6, align 4, !tbaa !32
  store i32 %12, ptr %4, align 4
  br label %21

13:                                               ; preds = %3
  %14 = load i32, ptr %5, align 4, !tbaa !32
  %15 = load i32, ptr %7, align 4, !tbaa !32
  %16 = icmp sgt i32 %14, %15
  br i1 %16, label %17, label %19

17:                                               ; preds = %13
  %18 = load i32, ptr %7, align 4, !tbaa !32
  store i32 %18, ptr %4, align 4
  br label %21

19:                                               ; preds = %13
  %20 = load i32, ptr %5, align 4, !tbaa !32
  store i32 %20, ptr %4, align 4
  br label %21

21:                                               ; preds = %19, %17, %11
  %22 = load i32, ptr %4, align 4
  ret i32 %22
}

; Function Attrs: alwaysinline nounwind willreturn memory(none) uwtable
define internal signext i16 @av_clip_int16_c(i32 noundef %0) #7 {
  %2 = alloca i16, align 2
  %3 = alloca i32, align 4
  store i32 %0, ptr %3, align 4, !tbaa !32
  %4 = load i32, ptr %3, align 4, !tbaa !32
  %5 = add i32 %4, 32768
  %6 = and i32 %5, -65536
  %7 = icmp ne i32 %6, 0
  br i1 %7, label %8, label %13

8:                                                ; preds = %1
  %9 = load i32, ptr %3, align 4, !tbaa !32
  %10 = ashr i32 %9, 31
  %11 = xor i32 %10, 32767
  %12 = trunc i32 %11 to i16
  store i16 %12, ptr %2, align 2
  br label %16

13:                                               ; preds = %1
  %14 = load i32, ptr %3, align 4, !tbaa !32
  %15 = trunc i32 %14 to i16
  store i16 %15, ptr %2, align 2
  br label %16

16:                                               ; preds = %13, %8
  %17 = load i16, ptr %2, align 2
  ret i16 %17
}

; Function Attrs: inlinehint nounwind uwtable
define internal zeroext i8 @adpcm_ima_compress_sample(ptr noundef %0, i16 noundef signext %1) #5 {
  %3 = alloca ptr, align 8
  %4 = alloca i16, align 2
  %5 = alloca i32, align 4
  %6 = alloca i32, align 4
  store ptr %0, ptr %3, align 8, !tbaa !76
  store i16 %1, ptr %4, align 2, !tbaa !78
  call void @llvm.lifetime.start.p0(i64 4, ptr %5) #10
  %7 = load i16, ptr %4, align 2, !tbaa !78
  %8 = sext i16 %7 to i32
  %9 = load ptr, ptr %3, align 8, !tbaa !76
  %10 = getelementptr inbounds nuw %struct.ADPCMChannelStatus, ptr %9, i32 0, i32 3
  %11 = load i32, ptr %10, align 4, !tbaa !80
  %12 = sub nsw i32 %8, %11
  store i32 %12, ptr %5, align 4, !tbaa !32
  call void @llvm.lifetime.start.p0(i64 4, ptr %6) #10
  %13 = load i32, ptr %5, align 4, !tbaa !32
  %14 = call i32 @llvm.abs.i32(i32 %13, i1 true)
  %15 = mul nsw i32 %14, 4
  %16 = load ptr, ptr %3, align 8, !tbaa !76
  %17 = getelementptr inbounds nuw %struct.ADPCMChannelStatus, ptr %16, i32 0, i32 1
  %18 = load i16, ptr %17, align 4, !tbaa !82
  %19 = sext i16 %18 to i64
  %20 = getelementptr inbounds [89 x i16], ptr @ff_adpcm_step_table, i64 0, i64 %19
  %21 = load i16, ptr %20, align 2, !tbaa !78
  %22 = sext i16 %21 to i32
  %23 = sdiv i32 %15, %22
  %24 = icmp sgt i32 7, %23
  br i1 %24, label %25, label %37

25:                                               ; preds = %2
  %26 = load i32, ptr %5, align 4, !tbaa !32
  %27 = call i32 @llvm.abs.i32(i32 %26, i1 true)
  %28 = mul nsw i32 %27, 4
  %29 = load ptr, ptr %3, align 8, !tbaa !76
  %30 = getelementptr inbounds nuw %struct.ADPCMChannelStatus, ptr %29, i32 0, i32 1
  %31 = load i16, ptr %30, align 4, !tbaa !82
  %32 = sext i16 %31 to i64
  %33 = getelementptr inbounds [89 x i16], ptr @ff_adpcm_step_table, i64 0, i64 %32
  %34 = load i16, ptr %33, align 2, !tbaa !78
  %35 = sext i16 %34 to i32
  %36 = sdiv i32 %28, %35
  br label %38

37:                                               ; preds = %2
  br label %38

38:                                               ; preds = %37, %25
  %39 = phi i32 [ %36, %25 ], [ 7, %37 ]
  %40 = load i32, ptr %5, align 4, !tbaa !32
  %41 = icmp slt i32 %40, 0
  %42 = zext i1 %41 to i32
  %43 = mul nsw i32 %42, 8
  %44 = add nsw i32 %39, %43
  store i32 %44, ptr %6, align 4, !tbaa !32
  %45 = load ptr, ptr %3, align 8, !tbaa !76
  %46 = getelementptr inbounds nuw %struct.ADPCMChannelStatus, ptr %45, i32 0, i32 1
  %47 = load i16, ptr %46, align 4, !tbaa !82
  %48 = sext i16 %47 to i64
  %49 = getelementptr inbounds [89 x i16], ptr @ff_adpcm_step_table, i64 0, i64 %48
  %50 = load i16, ptr %49, align 2, !tbaa !78
  %51 = sext i16 %50 to i32
  %52 = load i32, ptr %6, align 4, !tbaa !32
  %53 = sext i32 %52 to i64
  %54 = getelementptr inbounds [0 x i8], ptr @ff_adpcm_yamaha_difflookup, i64 0, i64 %53
  %55 = load i8, ptr %54, align 1, !tbaa !55
  %56 = sext i8 %55 to i32
  %57 = mul nsw i32 %51, %56
  %58 = sdiv i32 %57, 8
  %59 = load ptr, ptr %3, align 8, !tbaa !76
  %60 = getelementptr inbounds nuw %struct.ADPCMChannelStatus, ptr %59, i32 0, i32 3
  %61 = load i32, ptr %60, align 4, !tbaa !80
  %62 = add nsw i32 %61, %58
  store i32 %62, ptr %60, align 4, !tbaa !80
  %63 = load ptr, ptr %3, align 8, !tbaa !76
  %64 = getelementptr inbounds nuw %struct.ADPCMChannelStatus, ptr %63, i32 0, i32 3
  %65 = load i32, ptr %64, align 4, !tbaa !80
  %66 = call signext i16 @av_clip_int16_c(i32 noundef %65) #12
  %67 = sext i16 %66 to i32
  %68 = load ptr, ptr %3, align 8, !tbaa !76
  %69 = getelementptr inbounds nuw %struct.ADPCMChannelStatus, ptr %68, i32 0, i32 3
  store i32 %67, ptr %69, align 4, !tbaa !80
  %70 = load ptr, ptr %3, align 8, !tbaa !76
  %71 = getelementptr inbounds nuw %struct.ADPCMChannelStatus, ptr %70, i32 0, i32 1
  %72 = load i16, ptr %71, align 4, !tbaa !82
  %73 = sext i16 %72 to i32
  %74 = load i32, ptr %6, align 4, !tbaa !32
  %75 = sext i32 %74 to i64
  %76 = getelementptr inbounds [16 x i8], ptr @ff_adpcm_index_table, i64 0, i64 %75
  %77 = load i8, ptr %76, align 1, !tbaa !55
  %78 = sext i8 %77 to i32
  %79 = add nsw i32 %73, %78
  %80 = call i32 @av_clip_c(i32 noundef %79, i32 noundef 0, i32 noundef 88) #12
  %81 = trunc i32 %80 to i16
  %82 = load ptr, ptr %3, align 8, !tbaa !76
  %83 = getelementptr inbounds nuw %struct.ADPCMChannelStatus, ptr %82, i32 0, i32 1
  store i16 %81, ptr %83, align 4, !tbaa !82
  %84 = load i32, ptr %6, align 4, !tbaa !32
  %85 = trunc i32 %84 to i8
  call void @llvm.lifetime.end.p0(i64 4, ptr %6) #10
  call void @llvm.lifetime.end.p0(i64 4, ptr %5) #10
  ret i8 %85
}