; Function Attrs: inlinehint mustprogress nofree norecurse nosync nounwind willreturn memory(argmem: readwrite) uwtable
define internal fastcc zeroext i8 @adpcm_ima_compress_sample(ptr noundef captures(none) %0, i16 noundef signext %1) unnamed_addr #5 {
  %3 = sext i16 %1 to i32
  %4 = getelementptr inbounds nuw i8, ptr %0, i64 12
  %5 = load i32, ptr %4, align 4, !tbaa !66
  %6 = sub nsw i32 %3, %5
  %7 = tail call i32 @llvm.abs.i32(i32 %6, i1 true)
  %8 = shl nsw i32 %7, 2
  %9 = getelementptr inbounds nuw i8, ptr %0, i64 4
  %10 = load i16, ptr %9, align 4, !tbaa !68
  %11 = sext i16 %10 to i64
  %12 = getelementptr inbounds [89 x i16], ptr @ff_adpcm_step_table, i64 0, i64 %11
  %13 = load i16, ptr %12, align 2, !tbaa !64
  %14 = sext i16 %13 to i32
  %15 = sdiv i32 %8, %14
  %spec.select = tail call i32 @llvm.smin.i32(i32 %15, i32 7)
  %16 = lshr i32 %6, 28
  %17 = and i32 %16, 8
  %18 = add nsw i32 %spec.select, %17
  %19 = sext i32 %18 to i64
  %20 = getelementptr inbounds [0 x i8], ptr @ff_adpcm_yamaha_difflookup, i64 0, i64 %19
  %21 = load i8, ptr %20, align 1, !tbaa !49
  %22 = sext i8 %21 to i32
  %23 = mul nsw i32 %22, %14
  %24 = sdiv i32 %23, 8
  %25 = add nsw i32 %24, %5
  %26 = tail call i32 @llvm.smax.i32(i32 %25, i32 -32768)
  %27 = tail call i32 @llvm.smin.i32(i32 %26, i32 32767)
  store i32 %27, ptr %4, align 4, !tbaa !66
  %28 = sext i16 %10 to i32
  %29 = getelementptr inbounds [16 x i8], ptr @ff_adpcm_index_table, i64 0, i64 %19
  %30 = load i8, ptr %29, align 1, !tbaa !49
  %31 = sext i8 %30 to i32
  %32 = add nsw i32 %31, %28
  %33 = tail call i32 @llvm.smax.i32(i32 %32, i32 0)
  %34 = tail call i32 @llvm.umin.i32(i32 %33, i32 88)
  %35 = trunc nuw nsw i32 %34 to i16
  store i16 %35, ptr %9, align 4, !tbaa !68
  %36 = trunc i32 %18 to i8
  ret i8 %36
}